target datalayout = "e-m:e-p270:32:32-p271:32:32-p272:64:64-i64:64-i128:128-f80:128-n8:16:32:64-S128"
target triple = "x86_64-unknown-linux-gnu"

%"class.Assimp::Compression" = type { ptr }
%"struct.Assimp::Compression::impl" = type <{ i8, [7 x i8], %struct.z_stream_s, i32, [4 x i8] }>
%struct.z_stream_s = type { ptr, i32, i64, ptr, i32, i64, ptr, ptr, ptr, ptr, ptr, i32, i64, i64 }

; Function Attrs: mustprogress nounwind uwtable
define linkonce_odr hidden void @_ZN6Assimp11Compression4implC2Ev(ptr noundef nonnull align 8 dereferenceable(124) %this) unnamed_addr #0 comdat align 2 {
entry:
  %this.addr = alloca ptr, align 8
  store ptr %this, ptr %this.addr, align 8
  %this1 = load ptr, ptr %this.addr, align 8
  %mOpen = getelementptr inbounds %"struct.Assimp::Compression::impl", ptr %this1, i32 0, i32 0
  store i8 0, ptr %mOpen, align 8
  %mZSstream = getelementptr inbounds %"struct.Assimp::Compression::impl", ptr %this1, i32 0, i32 2
  call void @llvm.memset.p0.i64(ptr align 8 %mZSstream, i8 0, i64 112, i1 false)
  %mFlushMode = getelementptr inbounds %"struct.Assimp::Compression::impl", ptr %this1, i32 0, i32 3
  store i32 0, ptr %mFlushMode, align 8
  ret void
}

; Function Attrs: mustprogress uwtable
define hidden void @_ZN6Assimp11CompressionC2Ev(ptr noundef nonnull align 8 dereferenceable(8) %this) unnamed_addr #2 align 2 personality ptr @__gxx_personality_v0 {
entry:
  %this.addr = alloca ptr, align 8
  %exn.slot = alloca ptr, align 8
  %ehselector.slot = alloca i32, align 4
  store ptr %this, ptr %this.addr, align 8
  %this1 = load ptr, ptr %this.addr, align 8
  %mImpl = getelementptr inbounds %"class.Assimp::Compression", ptr %this1, i32 0, i32 0
  %call = call noalias noundef nonnull ptr @_Znwm(i64 noundef 128) #12
  invoke void @_ZN6Assimp11Compression4implC2Ev(ptr noundef nonnull align 8 dereferenceable(124) %call)
          to label %invoke.cont unwind label %lpad

invoke.cont:                                      ; preds = %entry
  store ptr %call, ptr %mImpl, align 8
  ret void

lpad:                                             ; preds = %entry
  %0 = landingpad { ptr, i32 }
          cleanup
  %1 = extractvalue { ptr, i32 } %0, 0
  store ptr %1, ptr %exn.slot, align 8
  %2 = extractvalue { ptr, i32 } %0, 1
  store i32 %2, ptr %ehselector.slot, align 4
  call void @_ZdlPv(ptr noundef %call) #13
  br label %eh.resume

eh.resume:                                        ; preds = %lpad
  %exn = load ptr, ptr %exn.slot, align 8
  %sel = load i32, ptr %ehselector.slot, align 4
  %lpad.val = insertvalue { ptr, i32 } poison, ptr %exn, 0
  %lpad.val2 = insertvalue { ptr, i32 } %lpad.val, i32 %sel, 1
  resume { ptr, i32 } %lpad.val2
}