; Function Attrs: mustprogress uwtable
define hidden void @_ZN6Assimp11CompressionC2Ev(ptr nocapture noundef nonnull writeonly align 8 dereferenceable(8) %this) unnamed_addr #0 align 2 personality ptr @__gxx_personality_v0 {
entry:
  %call = tail call noalias noundef nonnull dereferenceable(128) ptr @_Znwm(i64 noundef 128) #14
  store i8 0, ptr %call, align 8
  %mZSstream.i = getelementptr inbounds i8, ptr %call, i64 8
  tail call void @llvm.memset.p0.i64(ptr noundef nonnull align 8 dereferenceable(116) %mZSstream.i, i8 0, i64 116, i1 false)
  store ptr %call, ptr %this, align 8
  ret void
}